; Function Attrs: mustprogress uwtable
define hidden void @_ZN6google8protobuf8internal26UnknownFieldSerializerLiteEPKhjjjPNS0_2io17CodedOutputStreamE(ptr noundef readonly captures(none) %0, i32 noundef %1, i32 noundef %2, i32 noundef %3, ptr noundef %4) local_unnamed_addr #4 {
  %6 = zext i32 %1 to i64
  %7 = getelementptr inbounds nuw i8, ptr %0, i64 %6
  %8 = load i64, ptr %7, align 8, !tbaa !152
  %9 = and i64 %8, 1
  %.not = icmp eq i64 %9, 0
  br i1 %.not, label %14, label %10, !prof !41

10:                                               ; preds = %5
  %11 = and i64 %8, -4
  %12 = inttoptr i64 %11 to ptr
  %13 = getelementptr inbounds nuw i8, ptr %12, i64 8
  br label %_ZNK6google8protobuf8internal16InternalMetadata14unknown_fieldsINSt7__cxx1112basic_stringIcSt11char_traitsIcESaIcEEEEERKT_PFSC_vE.exit

14:                                               ; preds = %5
  %15 = load atomic i8, ptr @_ZN6google8protobuf8internal28init_protobuf_defaults_stateE acquire, align 1
  %16 = trunc i8 %15 to i1
  br i1 %16, label %_ZNK6google8protobuf8internal16InternalMetadata14unknown_fieldsINSt7__cxx1112basic_stringIcSt11char_traitsIcESaIcEEEEERKT_PFSC_vE.exit, label %17, !prof !41

17:                                               ; preds = %14
  tail call void @_ZN6google8protobuf8internal24InitProtobufDefaultsSlowEv()
  br label %_ZNK6google8protobuf8internal16InternalMetadata14unknown_fieldsINSt7__cxx1112basic_stringIcSt11char_traitsIcESaIcEEEEERKT_PFSC_vE.exit

_ZNK6google8protobuf8internal16InternalMetadata14unknown_fieldsINSt7__cxx1112basic_stringIcSt11char_traitsIcESaIcEEEEERKT_PFSC_vE.exit: ; preds = %17, %14, %10
  %.0.i = phi ptr [ %13, %10 ], [ @_ZN6google8protobuf8internal26fixed_address_empty_stringB5cxx11E, %14 ], [ @_ZN6google8protobuf8internal26fixed_address_empty_stringB5cxx11E, %17 ]
  %18 = load ptr, ptr %.0.i, align 8, !tbaa !6
  %19 = getelementptr inbounds nuw i8, ptr %.0.i, i64 8
  %20 = load i64, ptr %19, align 8, !tbaa !13
  %21 = getelementptr inbounds nuw i8, ptr %4, i64 64
  %22 = load ptr, ptr %21, align 8, !tbaa !17
  %23 = load ptr, ptr %4, align 8, !tbaa !40
  %24 = ptrtoint ptr %23 to i64
  %25 = ptrtoint ptr %22 to i64
  %26 = sub i64 %24, %25
  %sext.i = shl i64 %20, 32
  %27 = ashr exact i64 %sext.i, 32
  %28 = icmp slt i64 %26, %27
  br i1 %28, label %29, label %32, !prof !154

29:                                               ; preds = %_ZNK6google8protobuf8internal16InternalMetadata14unknown_fieldsINSt7__cxx1112basic_stringIcSt11char_traitsIcESaIcEEEEERKT_PFSC_vE.exit
  %30 = trunc i64 %20 to i32
  %31 = tail call noundef ptr @_ZN6google8protobuf2io19EpsCopyOutputStream16WriteRawFallbackEPKviPh(ptr noundef nonnull align 8 dereferenceable(80) %4, ptr noundef %18, i32 noundef %30, ptr noundef %22)
  br label %_ZN6google8protobuf2io17CodedOutputStream11WriteStringERKNSt7__cxx1112basic_stringIcSt11char_traitsIcESaIcEEE.exit

32:                                               ; preds = %_ZNK6google8protobuf8internal16InternalMetadata14unknown_fieldsINSt7__cxx1112basic_stringIcSt11char_traitsIcESaIcEEEEERKT_PFSC_vE.exit
  tail call void @llvm.memcpy.p0.p0.i64(ptr align 1 %22, ptr align 1 %18, i64 %27, i1 false)
  %33 = getelementptr inbounds i8, ptr %22, i64 %27
  br label %_ZN6google8protobuf2io17CodedOutputStream11WriteStringERKNSt7__cxx1112basic_stringIcSt11char_traitsIcESaIcEEE.exit

_ZN6google8protobuf2io17CodedOutputStream11WriteStringERKNSt7__cxx1112basic_stringIcSt11char_traitsIcESaIcEEE.exit: ; preds = %29, %32
  %.0.i.i.i = phi ptr [ %31, %29 ], [ %33, %32 ]
  store ptr %.0.i.i.i, ptr %21, align 8, !tbaa !17
  ret void
}